target datalayout = "e-m:e-p270:32:32-p271:32:32-p272:64:64-i64:64-i128:128-f80:128-n8:16:32:64-S128"
target triple = "x86_64-pc-linux-gnu"

%class.TypeOopPtr = type { %class.TypePtr.base, ptr, ptr, ptr, i8, i8, i8, i8, i32 }
%class.TypePtr.base = type <{ %class.Type.base, [4 x i8], ptr, i32, i32, i32 }>
%class.Type.base = type <{ ptr, ptr, i32 }>

; Function Attrs: mustprogress nounwind uwtable
define linkonce_odr hidden noundef zeroext i1 @_ZNK10ciMetadata6equalsEPS_(ptr noundef nonnull align 8 dereferenceable(24) %0, ptr noundef %1) #1 comdat align 2 {
  %3 = alloca ptr, align 8
  %4 = alloca ptr, align 8
  store ptr %0, ptr %3, align 8
  store ptr %1, ptr %4, align 8
  %5 = load ptr, ptr %3, align 8
  %6 = load ptr, ptr %4, align 8
  %7 = icmp eq ptr %5, %6
  ret i1 %7
}

; Function Attrs: mustprogress nounwind uwtable
define linkonce_odr hidden noundef ptr @_ZNK4Type10is_instptrEv(ptr noundef nonnull align 8 dereferenceable(20) %0) #1 comdat align 2 {
  %2 = alloca ptr, align 8
  store ptr %0, ptr %2, align 8
  %3 = load ptr, ptr %2, align 8
  ret ptr %3
}

; Function Attrs: mustprogress nounwind uwtable
define hidden noundef zeroext i1 @_ZNK11TypeInstPtr2eqEPK4Type(ptr noundef nonnull align 8 dereferenceable(80) %0, ptr noundef %1) unnamed_addr #1 align 2 {
  %3 = alloca ptr, align 8
  %4 = alloca ptr, align 8
  %5 = alloca ptr, align 8
  store ptr %0, ptr %3, align 8
  store ptr %1, ptr %4, align 8
  %6 = load ptr, ptr %3, align 8
  %7 = load ptr, ptr %4, align 8
  %8 = call noundef ptr @_ZNK4Type10is_instptrEv(ptr noundef nonnull align 8 dereferenceable(20) %7)
  store ptr %8, ptr %5, align 8
  %9 = load ptr, ptr %6, align 8
  %10 = getelementptr inbounds ptr, ptr %9, i64 29
  %11 = load ptr, ptr %10, align 8
  %12 = call noundef ptr %11(ptr noundef nonnull align 8 dereferenceable(80) %6)
  %13 = load ptr, ptr %5, align 8
  %14 = load ptr, ptr %13, align 8
  %15 = getelementptr inbounds ptr, ptr %14, i64 29
  %16 = load ptr, ptr %15, align 8
  %17 = call noundef ptr %16(ptr noundef nonnull align 8 dereferenceable(80) %13)
  %18 = call noundef zeroext i1 @_ZNK10ciMetadata6equalsEPS_(ptr noundef nonnull align 8 dereferenceable(24) %12, ptr noundef %17)
  br i1 %18, label %19, label %32

19:                                               ; preds = %2
  %20 = getelementptr inbounds %class.TypeOopPtr, ptr %6, i32 0, i32 3
  %21 = load ptr, ptr %20, align 8
  %22 = load ptr, ptr %5, align 8
  %23 = getelementptr inbounds %class.TypeOopPtr, ptr %22, i32 0, i32 3
  %24 = load ptr, ptr %23, align 8
  %25 = load ptr, ptr %21, align 8
  %26 = getelementptr inbounds ptr, ptr %25, i64 0
  %27 = load ptr, ptr %26, align 8
  %28 = call noundef zeroext i1 %27(ptr noundef nonnull align 8 dereferenceable(64) %21, ptr noundef %24)
  br i1 %28, label %29, label %32

29:                                               ; preds = %19
  %30 = load ptr, ptr %5, align 8
  %31 = call noundef zeroext i1 @_ZNK10TypeOopPtr2eqEPK4Type(ptr noundef nonnull align 8 dereferenceable(80) %6, ptr noundef %30)
  br label %32

32:                                               ; preds = %29, %19, %2
  %33 = phi i1 [ false, %19 ], [ false, %2 ], [ %31, %29 ]
  ret i1 %33
}