; Function Attrs: mustprogress nounwind uwtable
define hidden noundef zeroext i1 @_ZNK11TypeInstPtr2eqEPK4Type(ptr noundef nonnull align 8 dereferenceable(80) %0, ptr noundef %1) unnamed_addr #0 align 2 {
  %3 = load ptr, ptr %0, align 8
  %4 = getelementptr inbounds i8, ptr %3, i64 232
  %5 = load ptr, ptr %4, align 8
  %6 = tail call noundef ptr %5(ptr noundef nonnull align 8 dereferenceable(80) %0) #17
  %7 = load ptr, ptr %1, align 8
  %8 = getelementptr inbounds i8, ptr %7, i64 232
  %9 = load ptr, ptr %8, align 8
  %10 = tail call noundef ptr %9(ptr noundef nonnull align 8 dereferenceable(80) %1) #17
  %11 = icmp eq ptr %6, %10
  br i1 %11, label %12, label %22

12:                                               ; preds = %2
  %13 = getelementptr inbounds i8, ptr %0, i64 64
  %14 = load ptr, ptr %13, align 8
  %15 = getelementptr inbounds i8, ptr %1, i64 64
  %16 = load ptr, ptr %15, align 8
  %17 = load ptr, ptr %14, align 8
  %18 = load ptr, ptr %17, align 8
  %19 = tail call noundef zeroext i1 %18(ptr noundef nonnull align 8 dereferenceable(64) %14, ptr noundef %16) #17
  br i1 %19, label %20, label %22

20:                                               ; preds = %12
  %21 = tail call noundef zeroext i1 @_ZNK10TypeOopPtr2eqEPK4Type(ptr noundef nonnull align 8 dereferenceable(80) %0, ptr noundef nonnull %1)
  br label %22

22:                                               ; preds = %20, %12, %2
  %23 = phi i1 [ false, %12 ], [ false, %2 ], [ %21, %20 ]
  ret i1 %23
}